target datalayout = "e-m:e-p270:32:32-p271:32:32-p272:64:64-i64:64-i128:128-f80:128-n8:16:32:64-S128"
target triple = "x86_64-pc-linux-gnu"

%struct.stat = type { i64, i64, i64, i32, i32, i32, i32, i64, i64, i64, i64, %struct.timespec, %struct.timespec, %struct.timespec, [3 x i64] }
%struct.timespec = type { i64, i64 }

; Function Attrs: mustprogress nounwind uwtable
define noundef double @_ZN32pxrInternal_v0_24__pxrReserved__17ArchGetAccessTimeERK4stat(ptr noundef nonnull align 8 dereferenceable(144) %0) #2 {
  %2 = alloca ptr, align 8
  store ptr %0, ptr %2, align 8
  %3 = load ptr, ptr %2, align 8
  %4 = getelementptr inbounds nuw %struct.stat, ptr %3, i32 0, i32 11
  %5 = getelementptr inbounds nuw %struct.timespec, ptr %4, i32 0, i32 0
  %6 = load i64, ptr %5, align 8
  %7 = sitofp i64 %6 to double
  %8 = load ptr, ptr %2, align 8
  %9 = getelementptr inbounds nuw %struct.stat, ptr %8, i32 0, i32 11
  %10 = getelementptr inbounds nuw %struct.timespec, ptr %9, i32 0, i32 1
  %11 = load i64, ptr %10, align 8
  %12 = sitofp i64 %11 to double
  %13 = call double @llvm.fmuladd.f64(double 1.000000e-09, double %12, double %7)
  ret double %13
}