; Function Attrs: mustprogress nofree norecurse nosync nounwind willreturn memory(argmem: read) uwtable
define noundef double @_ZN32pxrInternal_v0_24__pxrReserved__17ArchGetAccessTimeERK4stat(ptr noundef nonnull readonly align 8 captures(none) dereferenceable(144) %0) local_unnamed_addr #4 {
  %2 = getelementptr inbounds nuw i8, ptr %0, i64 72
  %3 = load i64, ptr %2, align 8
  %4 = sitofp i64 %3 to double
  %5 = getelementptr inbounds nuw i8, ptr %0, i64 80
  %6 = load i64, ptr %5, align 8
  %7 = sitofp i64 %6 to double
  %8 = tail call double @llvm.fmuladd.f64(double %7, double 1.000000e-09, double %4)
  ret double %8
}